target datalayout = "e-m:e-p270:32:32-p271:32:32-p272:64:64-i64:64-i128:128-f80:128-n8:16:32:64-S128"
target triple = "x86_64-pc-linux-gnu"

%struct.curl_trc_feat = type { ptr, i32 }
%struct.Curl_easy = type { i32, i64, i64, ptr, %struct.Curl_llist_node, %struct.Curl_llist_node, i32, i32, %struct.Curl_message, %struct.easy_pollset, %struct.Names, ptr, ptr, ptr, %struct.SingleRequest, %struct.UserDefined, ptr, ptr, %struct.Progress, %struct.UrlState, ptr, %struct.PureInfo, %struct.curl_tlssessioninfo }
%struct.Curl_llist_node = type { ptr, ptr, ptr, ptr }
%struct.Curl_message = type { %struct.Curl_llist_node, %struct.CURLMsg }
%struct.CURLMsg = type { i32, ptr, %union.anon }
%union.anon = type { ptr }
%struct.easy_pollset = type { [5 x i32], i32, [5 x i8] }
%struct.Names = type { ptr, i32 }
%struct.SingleRequest = type <{ i64, i64, i64, i64, %struct.curltime, i32, i32, i32, i32, i64, i32, i32, i32, i32, ptr, ptr, %struct.bufq, i64, i64, ptr, ptr, %union.anon.0, ptr, i8, i32, [3 x i8] }>
%struct.curltime = type { i64, i32 }
%struct.bufq = type { ptr, ptr, ptr, ptr, i64, i64, i64, i32 }
%union.anon.0 = type { ptr }
%struct.UserDefined = type <{ ptr, ptr, ptr, ptr, ptr, ptr, i16, [6 x i8], i64, i64, i64, ptr, ptr, i64, i16, i16, [4 x i8], ptr, ptr, ptr, ptr, ptr, ptr, ptr, ptr, ptr, ptr, ptr, ptr, ptr, ptr, ptr, ptr, ptr, ptr, ptr, ptr, ptr, ptr, ptr, i32, i32, i32, i32, i32, [4 x i8], i64, i64, i64, i64, i64, i64, i64, i64, ptr, ptr, %struct.curl_mimepart, ptr, ptr, i64, i8, i8, i8, [5 x i8], %struct.ssl_config_data, %struct.ssl_config_data, ptr, i16, i8, i8, [4 x i8], %struct.ssl_general_config, i32, i32, i32, [4 x i8], ptr, ptr, i8, [7 x i8], i64, i8, i8, i8, i8, i32, ptr, ptr, ptr, i8, i8, [2 x i8], i32, [63 x ptr], [8 x ptr], i32, i32, i32, [4 x i8], ptr, ptr, ptr, ptr, ptr, i8, [3 x i8], i32, i32, i32, i64, %struct.Curl_data_priority, ptr, ptr, i64, ptr, i64, ptr, ptr, ptr, i8, [3 x i8], i32, i8, i8, i64, [6 x i8] }>
%struct.curl_mimepart = type { ptr, ptr, i32, i32, ptr, ptr, ptr, ptr, ptr, ptr, ptr, ptr, ptr, ptr, ptr, i64, %struct.mime_state, ptr, %struct.mime_encoder_state, i64 }
%struct.mime_state = type { i32, ptr, i64 }
%struct.mime_encoder_state = type { i64, i64, i64, [256 x i8] }
%struct.ssl_config_data = type { %struct.ssl_primary_config, i64, ptr, ptr, ptr, ptr, ptr, ptr, ptr, i16 }
%struct.ssl_primary_config = type { ptr, ptr, ptr, ptr, ptr, ptr, ptr, ptr, ptr, ptr, ptr, ptr, i8, i32, i8, i8 }
%struct.ssl_general_config = type { i64, i32 }
%struct.Curl_data_priority = type { ptr, ptr, i32, i8 }
%struct.Progress = type { i64, %struct.pgrs_dir, %struct.pgrs_dir, i64, i64, i32, i32, i64, i64, i64, i64, i64, i64, i64, i64, i64, %struct.curltime, %struct.curltime, %struct.curltime, %struct.curltime, [6 x i64], [6 x %struct.curltime], i32, i8 }
%struct.pgrs_dir = type { i64, i64, i64, %struct.pgrs_measure }
%struct.pgrs_measure = type { %struct.curltime, i64 }
%struct.UrlState = type { %struct.curltime, i64, i64, %struct.dynbuf, ptr, i64, ptr, i32, i32, i32, ptr, i64, i32, i64, i32, ptr, %struct.digestdata, %struct.digestdata, %struct.auth, %struct.auth, %struct.Curl_async, ptr, %struct.curltime, %struct.Curl_tree, %struct.Curl_llist, [15 x %struct.time_node], ptr, ptr, i64, i64, %struct.Curl_data_priority, ptr, ptr, ptr, %struct.urlpieces, ptr, ptr, ptr, ptr, ptr, i64, %struct.dynbuf, %struct.Curl_llist, [2 x %struct.curl_header], ptr, i32, ptr, ptr, %struct.store_netrc, %struct.dynamically_allocated_data, i8, i8, i8, i8, i32 }
%struct.digestdata = type { ptr, ptr, ptr, ptr, ptr, ptr, i32, i8, i8 }
%struct.auth = type { i64, i64, i64, i8 }
%struct.Curl_async = type { ptr, ptr, ptr, ptr, i32, i32, i8 }
%struct.Curl_tree = type { ptr, ptr, ptr, ptr, %struct.curltime, ptr }
%struct.time_node = type { %struct.Curl_llist_node, %struct.curltime, i32 }
%struct.urlpieces = type { ptr, ptr, ptr, ptr, ptr, ptr, ptr, ptr }
%struct.dynbuf = type { ptr, i64, i64, i64 }
%struct.Curl_llist = type { ptr, ptr, ptr, i64 }
%struct.curl_header = type { ptr, ptr, i64, i64, i32, ptr }
%struct.store_netrc = type { %struct.dynbuf, ptr, i8 }
%struct.dynamically_allocated_data = type { ptr, ptr, ptr, ptr, ptr, ptr, ptr, ptr, ptr, ptr, ptr, ptr, ptr }
%struct.PureInfo = type { i32, i32, i32, i64, i64, i64, i64, i64, ptr, ptr, i64, i32, %struct.ip_quadruple, i32, ptr, i32, %struct.curl_certinfo, i32, i8 }
%struct.ip_quadruple = type { [46 x i8], [46 x i8], i32, i32 }
%struct.curl_certinfo = type { i32, ptr }
%struct.curl_tlssessioninfo = type { i32, ptr }
%struct.Curl_cwriter = type { ptr, ptr, ptr, i32 }

@Curl_trc_feat_write = external global %struct.curl_trc_feat, align 8
@.str.1 = private unnamed_addr constant [46 x i8] c"header_collect pushed(type=%x, len=%zu) -> %d\00", align 1

; Function Attrs: nounwind uwtable
define internal i32 @hds_cw_collect_write(ptr noundef %0, ptr noundef %1, i32 noundef %2, ptr noundef %3, i64 noundef %4) #0 {
  %6 = alloca i32, align 4
  %7 = alloca ptr, align 8
  %8 = alloca ptr, align 8
  %9 = alloca i32, align 4
  %10 = alloca ptr, align 8
  %11 = alloca i64, align 8
  %12 = alloca i8, align 1
  %13 = alloca i32, align 4
  %14 = alloca i32, align 4
  store ptr %0, ptr %7, align 8, !tbaa !18
  store ptr %1, ptr %8, align 8, !tbaa !129
  store i32 %2, ptr %9, align 4, !tbaa !12
  store ptr %3, ptr %10, align 8, !tbaa !8
  store i64 %4, ptr %11, align 8, !tbaa !10
  %15 = load i32, ptr %9, align 4, !tbaa !12
  %16 = and i32 %15, 4
  %17 = icmp ne i32 %16, 0
  br i1 %17, label %18, label %92

18:                                               ; preds = %5
  %19 = load i32, ptr %9, align 4, !tbaa !12
  %20 = and i32 %19, 8
  %21 = icmp ne i32 %20, 0
  br i1 %21, label %92, label %22

22:                                               ; preds = %18
  call void @llvm.lifetime.start.p0(i64 1, ptr %12) #5
  %23 = load i32, ptr %9, align 4, !tbaa !12
  %24 = and i32 %23, 16
  %25 = icmp ne i32 %24, 0
  br i1 %25, label %26, label %27

26:                                               ; preds = %22
  br label %39

27:                                               ; preds = %22
  %28 = load i32, ptr %9, align 4, !tbaa !12
  %29 = and i32 %28, 32
  %30 = icmp ne i32 %29, 0
  br i1 %30, label %31, label %32

31:                                               ; preds = %27
  br label %37

32:                                               ; preds = %27
  %33 = load i32, ptr %9, align 4, !tbaa !12
  %34 = and i32 %33, 64
  %35 = icmp ne i32 %34, 0
  %36 = select i1 %35, i32 2, i32 1
  br label %37

37:                                               ; preds = %32, %31
  %38 = phi i32 [ 8, %31 ], [ %36, %32 ]
  br label %39

39:                                               ; preds = %37, %26
  %40 = phi i32 [ 4, %26 ], [ %38, %37 ]
  %41 = trunc i32 %40 to i8
  store i8 %41, ptr %12, align 1, !tbaa !105
  call void @llvm.lifetime.start.p0(i64 4, ptr %13) #5
  %42 = load ptr, ptr %7, align 8, !tbaa !18
  %43 = load ptr, ptr %10, align 8, !tbaa !8
  %44 = load i8, ptr %12, align 1, !tbaa !105
  %45 = call i32 @Curl_headers_push(ptr noundef %42, ptr noundef %43, i8 noundef zeroext %44)
  store i32 %45, ptr %13, align 4, !tbaa !12
  br label %46

46:                                               ; preds = %39
  %47 = load ptr, ptr %7, align 8, !tbaa !18
  %48 = icmp ne ptr %47, null
  br i1 %48, label %49, label %81

49:                                               ; preds = %46
  %50 = load ptr, ptr %7, align 8, !tbaa !18
  %51 = getelementptr inbounds nuw %struct.Curl_easy, ptr %50, i32 0, i32 15
  %52 = getelementptr inbounds nuw %struct.UserDefined, ptr %51, i32 0, i32 124
  %53 = load i64, ptr %52, align 2
  %54 = lshr i64 %53, 27
  %55 = and i64 %54, 1
  %56 = trunc i64 %55 to i32
  %57 = icmp ne i32 %56, 0
  br i1 %57, label %58, label %81

58:                                               ; preds = %49
  %59 = load ptr, ptr %7, align 8, !tbaa !18
  %60 = getelementptr inbounds nuw %struct.Curl_easy, ptr %59, i32 0, i32 19
  %61 = getelementptr inbounds nuw %struct.UrlState, ptr %60, i32 0, i32 47
  %62 = load ptr, ptr %61, align 8, !tbaa !131
  %63 = icmp ne ptr %62, null
  br i1 %63, label %64, label %72

64:                                               ; preds = %58
  %65 = load ptr, ptr %7, align 8, !tbaa !18
  %66 = getelementptr inbounds nuw %struct.Curl_easy, ptr %65, i32 0, i32 19
  %67 = getelementptr inbounds nuw %struct.UrlState, ptr %66, i32 0, i32 47
  %68 = load ptr, ptr %67, align 8, !tbaa !131
  %69 = getelementptr inbounds nuw %struct.curl_trc_feat, ptr %68, i32 0, i32 1
  %70 = load i32, ptr %69, align 8, !tbaa !132
  %71 = icmp sge i32 %70, 1
  br i1 %71, label %72, label %81

72:                                               ; preds = %64, %58
  %73 = load i32, ptr getelementptr inbounds nuw (%struct.curl_trc_feat, ptr @Curl_trc_feat_write, i32 0, i32 1), align 8, !tbaa !132
  %74 = icmp sge i32 %73, 1
  br i1 %74, label %75, label %81

75:                                               ; preds = %72
  %76 = load ptr, ptr %7, align 8, !tbaa !18
  %77 = load i8, ptr %12, align 1, !tbaa !105
  %78 = zext i8 %77 to i32
  %79 = load i64, ptr %11, align 8, !tbaa !10
  %80 = load i32, ptr %13, align 4, !tbaa !12
  call void (ptr, ptr, ...) @Curl_trc_write(ptr noundef %76, ptr noundef @.str.1, i32 noundef %78, i64 noundef %79, i32 noundef %80)
  br label %81

81:                                               ; preds = %75, %72, %64, %49, %46
  br label %82

82:                                               ; preds = %81
  br label %83

83:                                               ; preds = %82
  %84 = load i32, ptr %13, align 4, !tbaa !12
  %85 = icmp ne i32 %84, 0
  br i1 %85, label %86, label %88

86:                                               ; preds = %83
  %87 = load i32, ptr %13, align 4, !tbaa !12
  store i32 %87, ptr %6, align 4
  store i32 1, ptr %14, align 4
  br label %89

88:                                               ; preds = %83
  store i32 0, ptr %14, align 4
  br label %89

89:                                               ; preds = %88, %86
  call void @llvm.lifetime.end.p0(i64 4, ptr %13) #5
  call void @llvm.lifetime.end.p0(i64 1, ptr %12) #5
  %90 = load i32, ptr %14, align 4
  switch i32 %90, label %103 [
    i32 0, label %91
    i32 1, label %101
  ]

91:                                               ; preds = %89
  br label %92

92:                                               ; preds = %91, %18, %5
  %93 = load ptr, ptr %7, align 8, !tbaa !18
  %94 = load ptr, ptr %8, align 8, !tbaa !129
  %95 = getelementptr inbounds nuw %struct.Curl_cwriter, ptr %94, i32 0, i32 1
  %96 = load ptr, ptr %95, align 8, !tbaa !134
  %97 = load i32, ptr %9, align 4, !tbaa !12
  %98 = load ptr, ptr %10, align 8, !tbaa !8
  %99 = load i64, ptr %11, align 8, !tbaa !10
  %100 = call i32 @Curl_cwriter_write(ptr noundef %93, ptr noundef %96, i32 noundef %97, ptr noundef %98, i64 noundef %99)
  store i32 %100, ptr %6, align 4
  br label %101

101:                                              ; preds = %92, %89
  %102 = load i32, ptr %6, align 4
  ret i32 %102

103:                                              ; preds = %89
  unreachable
}