; Function Attrs: nounwind uwtable
define internal i32 @hds_cw_collect_write(ptr noundef %0, ptr noundef readonly captures(none) %1, i32 noundef %2, ptr noundef %3, i64 noundef %4) #0 {
  %6 = and i32 %2, 12
  %or.cond37 = icmp eq i32 %6, 4
  br i1 %or.cond37, label %7, label %34

7:                                                ; preds = %5
  %8 = and i32 %2, 16
  %.not29 = icmp eq i32 %8, 0
  br i1 %.not29, label %9, label %14

9:                                                ; preds = %7
  %10 = and i32 %2, 32
  %.not30 = icmp eq i32 %10, 0
  %11 = and i32 %2, 64
  %.not31 = icmp eq i32 %11, 0
  %12 = select i1 %.not31, i8 1, i8 2
  %13 = select i1 %.not30, i8 %12, i8 8
  br label %14

14:                                               ; preds = %7, %9
  %15 = phi i8 [ %13, %9 ], [ 4, %7 ]
  %16 = tail call i32 @Curl_headers_push(ptr noundef %0, ptr noundef %3, i8 noundef zeroext %15)
  %.not32 = icmp eq ptr %0, null
  br i1 %.not32, label %33, label %17

17:                                               ; preds = %14
  %18 = getelementptr inbounds nuw i8, ptr %0, i64 2562
  %19 = load i64, ptr %18, align 2
  %20 = and i64 %19, 134217728
  %.not33 = icmp eq i64 %20, 0
  br i1 %.not33, label %33, label %21

21:                                               ; preds = %17
  %22 = getelementptr inbounds nuw i8, ptr %0, i64 4712
  %23 = load ptr, ptr %22, align 8, !tbaa !119
  %.not34 = icmp eq ptr %23, null
  br i1 %.not34, label %30, label %24

24:                                               ; preds = %21
  %25 = getelementptr inbounds nuw i8, ptr %23, i64 8
  %26 = load i32, ptr %25, align 8, !tbaa !120
  %27 = icmp sgt i32 %26, 0
  %28 = load i32, ptr getelementptr inbounds nuw (i8, ptr @Curl_trc_feat_write, i64 8), align 8
  %29 = icmp sgt i32 %28, 0
  %or.cond = select i1 %27, i1 %29, i1 false
  br i1 %or.cond, label %31, label %33

30:                                               ; preds = %21
  %.old = load i32, ptr getelementptr inbounds nuw (i8, ptr @Curl_trc_feat_write, i64 8), align 8, !tbaa !120
  %.old1 = icmp sgt i32 %.old, 0
  br i1 %.old1, label %31, label %33

31:                                               ; preds = %24, %30
  %32 = zext nneg i8 %15 to i32
  tail call void (ptr, ptr, ...) @Curl_trc_write(ptr noundef nonnull %0, ptr noundef nonnull @.str.1, i32 noundef %32, i64 noundef %4, i32 noundef %16) #5
  br label %33

33:                                               ; preds = %31, %30, %24, %17, %14
  %.not35.not = icmp eq i32 %16, 0
  br i1 %.not35.not, label %34, label %38

34:                                               ; preds = %33, %5
  %35 = getelementptr inbounds nuw i8, ptr %1, i64 8
  %36 = load ptr, ptr %35, align 8, !tbaa !122
  %37 = tail call i32 @Curl_cwriter_write(ptr noundef %0, ptr noundef %36, i32 noundef %2, ptr noundef %3, i64 noundef %4) #5
  br label %38

38:                                               ; preds = %33, %34
  %.1 = phi i32 [ %37, %34 ], [ %16, %33 ]
  ret i32 %.1
}